; Function Attrs: mustprogress nounwind uwtable
define internal void @_ZNK12_GLOBAL__N_114StringArgument28writeCtorDefaultInitializersERN4llvm11raw_ostreamE(ptr noundef nonnull align 8 dereferenceable(90) %0, ptr noundef nonnull align 8 dereferenceable(48) %1) unnamed_addr #0 align 2 {
  %3 = getelementptr inbounds nuw i8, ptr %0, i64 8
  %4 = tail call noundef ptr @_ZNKSt7__cxx1112basic_stringIcSt11char_traitsIcESaIcEE4dataEv(ptr noundef nonnull align 8 dereferenceable(32) %3) #22
  %5 = tail call noundef i64 @_ZNKSt7__cxx1112basic_stringIcSt11char_traitsIcESaIcEE6lengthEv(ptr noundef nonnull align 8 dereferenceable(32) %3) #22
  %6 = getelementptr inbounds nuw i8, ptr %1, i64 24
  %7 = load ptr, ptr %6, align 8
  %8 = getelementptr inbounds nuw i8, ptr %1, i64 32
  %9 = load ptr, ptr %8, align 8
  %10 = ptrtoint ptr %7 to i64
  %11 = ptrtoint ptr %9 to i64
  %12 = sub i64 %10, %11
  %13 = icmp ugt i64 %5, %12
  br i1 %13, label %14, label %16

14:                                               ; preds = %2
  %15 = tail call noundef nonnull align 8 dereferenceable(48) ptr @_ZN4llvm11raw_ostream5writeEPKcm(ptr noundef nonnull align 8 dereferenceable(48) %1, ptr noundef %4, i64 noundef %5) #22
  %.phi.trans.insert = getelementptr inbounds nuw i8, ptr %15, i64 32
  %.pre = load ptr, ptr %.phi.trans.insert, align 8
  br label %_ZN4llvm11raw_ostreamlsENS_9StringRefE.exit

16:                                               ; preds = %2
  %.not.i = icmp eq i64 %5, 0
  br i1 %.not.i, label %_ZN4llvm11raw_ostreamlsENS_9StringRefE.exit, label %17

17:                                               ; preds = %16
  tail call void @llvm.memcpy.p0.p0.i64(ptr align 1 %9, ptr align 1 %4, i64 %5, i1 false)
  %18 = load ptr, ptr %8, align 8
  %19 = getelementptr inbounds i8, ptr %18, i64 %5
  store ptr %19, ptr %8, align 8
  br label %_ZN4llvm11raw_ostreamlsENS_9StringRefE.exit

_ZN4llvm11raw_ostreamlsENS_9StringRefE.exit:      ; preds = %14, %16, %17
  %20 = phi ptr [ %.pre, %14 ], [ %19, %17 ], [ %9, %16 ]
  %.0.i = phi ptr [ %15, %14 ], [ %1, %17 ], [ %1, %16 ]
  %21 = getelementptr inbounds nuw i8, ptr %.0.i, i64 24
  %22 = load ptr, ptr %21, align 8
  %23 = ptrtoint ptr %22 to i64
  %24 = ptrtoint ptr %20 to i64
  %25 = sub i64 %23, %24
  %26 = icmp ult i64 %25, 10
  br i1 %26, label %27, label %29

27:                                               ; preds = %_ZN4llvm11raw_ostreamlsENS_9StringRefE.exit
  %28 = tail call noundef nonnull align 8 dereferenceable(48) ptr @_ZN4llvm11raw_ostream5writeEPKcm(ptr noundef nonnull align 8 dereferenceable(48) %.0.i, ptr noundef nonnull @.str.772, i64 noundef 10) #22
  br label %_ZN4llvm11raw_ostreamlsEPKc.exit

29:                                               ; preds = %_ZN4llvm11raw_ostreamlsENS_9StringRefE.exit
  %30 = getelementptr inbounds nuw i8, ptr %.0.i, i64 32
  tail call void @llvm.memcpy.p0.p0.i64(ptr noundef nonnull align 1 dereferenceable(10) %20, ptr noundef nonnull align 1 dereferenceable(10) @.str.772, i64 10, i1 false)
  %31 = load ptr, ptr %30, align 8
  %32 = getelementptr inbounds i8, ptr %31, i64 10
  store ptr %32, ptr %30, align 8
  br label %_ZN4llvm11raw_ostreamlsEPKc.exit

_ZN4llvm11raw_ostreamlsEPKc.exit:                 ; preds = %27, %29
  %.0.i.i = phi ptr [ %28, %27 ], [ %.0.i, %29 ]
  %33 = tail call noundef ptr @_ZNKSt7__cxx1112basic_stringIcSt11char_traitsIcESaIcEE4dataEv(ptr noundef nonnull align 8 dereferenceable(32) %3) #22
  %34 = tail call noundef i64 @_ZNKSt7__cxx1112basic_stringIcSt11char_traitsIcESaIcEE6lengthEv(ptr noundef nonnull align 8 dereferenceable(32) %3) #22
  %35 = getelementptr inbounds nuw i8, ptr %.0.i.i, i64 24
  %36 = load ptr, ptr %35, align 8
  %37 = getelementptr inbounds nuw i8, ptr %.0.i.i, i64 32
  %38 = load ptr, ptr %37, align 8
  %39 = ptrtoint ptr %36 to i64
  %40 = ptrtoint ptr %38 to i64
  %41 = sub i64 %39, %40
  %42 = icmp ugt i64 %34, %41
  br i1 %42, label %43, label %45

43:                                               ; preds = %_ZN4llvm11raw_ostreamlsEPKc.exit
  %44 = tail call noundef nonnull align 8 dereferenceable(48) ptr @_ZN4llvm11raw_ostream5writeEPKcm(ptr noundef nonnull align 8 dereferenceable(48) %.0.i.i, ptr noundef %33, i64 noundef %34) #22
  %.phi.trans.insert12 = getelementptr inbounds nuw i8, ptr %44, i64 32
  %.pre13 = load ptr, ptr %.phi.trans.insert12, align 8
  br label %_ZN4llvm11raw_ostreamlsENS_9StringRefE.exit8

45:                                               ; preds = %_ZN4llvm11raw_ostreamlsEPKc.exit
  %.not.i6 = icmp eq i64 %34, 0
  br i1 %.not.i6, label %_ZN4llvm11raw_ostreamlsENS_9StringRefE.exit8, label %46

46:                                               ; preds = %45
  tail call void @llvm.memcpy.p0.p0.i64(ptr align 1 %38, ptr align 1 %33, i64 %34, i1 false)
  %47 = load ptr, ptr %37, align 8
  %48 = getelementptr inbounds i8, ptr %47, i64 %34
  store ptr %48, ptr %37, align 8
  br label %_ZN4llvm11raw_ostreamlsENS_9StringRefE.exit8

_ZN4llvm11raw_ostreamlsENS_9StringRefE.exit8:     ; preds = %43, %45, %46
  %49 = phi ptr [ %.pre13, %43 ], [ %48, %46 ], [ %38, %45 ]
  %.0.i7 = phi ptr [ %44, %43 ], [ %.0.i.i, %46 ], [ %.0.i.i, %45 ]
  %50 = getelementptr inbounds nuw i8, ptr %.0.i7, i64 24
  %51 = load ptr, ptr %50, align 8
  %52 = ptrtoint ptr %51 to i64
  %53 = ptrtoint ptr %49 to i64
  %54 = sub i64 %52, %53
  %55 = icmp ult i64 %54, 9
  br i1 %55, label %56, label %58

56:                                               ; preds = %_ZN4llvm11raw_ostreamlsENS_9StringRefE.exit8
  %57 = tail call noundef nonnull align 8 dereferenceable(48) ptr @_ZN4llvm11raw_ostream5writeEPKcm(ptr noundef nonnull align 8 dereferenceable(48) %.0.i7, ptr noundef nonnull @.str.773, i64 noundef 9) #22
  br label %_ZN4llvm11raw_ostreamlsEPKc.exit11

58:                                               ; preds = %_ZN4llvm11raw_ostreamlsENS_9StringRefE.exit8
  %59 = getelementptr inbounds nuw i8, ptr %.0.i7, i64 32
  tail call void @llvm.memcpy.p0.p0.i64(ptr noundef nonnull align 1 dereferenceable(9) %49, ptr noundef nonnull align 1 dereferenceable(9) @.str.773, i64 9, i1 false)
  %60 = load ptr, ptr %59, align 8
  %61 = getelementptr inbounds i8, ptr %60, i64 9
  store ptr %61, ptr %59, align 8
  br label %_ZN4llvm11raw_ostreamlsEPKc.exit11

_ZN4llvm11raw_ostreamlsEPKc.exit11:               ; preds = %56, %58
  ret void
}